target datalayout = "e-m:e-p270:32:32-p271:32:32-p272:64:64-i64:64-i128:128-f80:128-n8:16:32:64-S128"
target triple = "x86_64-pc-linux-gnu"

@.str.4 = private unnamed_addr constant [1 x i8] zeroinitializer, align 1
@.str.7 = private unnamed_addr constant [2 x i8] c"\0A\00", align 1
@.str.25 = private unnamed_addr constant [2 x i8] c":\00", align 1
@.str.28 = private unnamed_addr constant [21 x i8] c"%*sTrusted Uses:\0A%*s\00", align 1
@.str.29 = private unnamed_addr constant [3 x i8] c", \00", align 1
@.str.30 = private unnamed_addr constant [21 x i8] c"%*sNo Trusted Uses.\0A\00", align 1
@.str.31 = private unnamed_addr constant [22 x i8] c"%*sRejected Uses:\0A%*s\00", align 1
@.str.32 = private unnamed_addr constant [22 x i8] c"%*sNo Rejected Uses.\0A\00", align 1
@.str.33 = private unnamed_addr constant [16 x i8] c"%*sAlias: %.*s\0A\00", align 1
@.str.34 = private unnamed_addr constant [12 x i8] c"%*sKey Id: \00", align 1
@.str.35 = private unnamed_addr constant [7 x i8] c"%s%02X\00", align 1

; Function Attrs: inlinehint nounwind uwtable
define internal ptr @ossl_check_const_ASN1_OBJECT_sk_type(ptr noundef %0) #2 {
  %2 = alloca ptr, align 8
  store ptr %0, ptr %2, align 8, !tbaa !46
  %3 = load ptr, ptr %2, align 8, !tbaa !46
  ret ptr %3
}

; Function Attrs: nounwind uwtable
define i32 @X509_aux_print(ptr noundef %0, ptr noundef %1, i32 noundef %2) #0 {
  %4 = alloca i32, align 4
  %5 = alloca ptr, align 8
  %6 = alloca ptr, align 8
  %7 = alloca i32, align 4
  %8 = alloca [80 x i8], align 16
  %9 = alloca i8, align 1
  %10 = alloca ptr, align 8
  %11 = alloca ptr, align 8
  %12 = alloca ptr, align 8
  %13 = alloca ptr, align 8
  %14 = alloca i32, align 4
  %15 = alloca i32, align 4
  %16 = alloca i32, align 4
  store ptr %0, ptr %5, align 8, !tbaa !15
  store ptr %1, ptr %6, align 8, !tbaa !11
  store i32 %2, ptr %7, align 4, !tbaa !17
  call void @llvm.lifetime.start.p0(i64 80, ptr %8) #4
  call void @llvm.lifetime.start.p0(i64 1, ptr %9) #4
  call void @llvm.lifetime.start.p0(i64 8, ptr %10) #4
  call void @llvm.lifetime.start.p0(i64 8, ptr %11) #4
  call void @llvm.lifetime.start.p0(i64 8, ptr %12) #4
  call void @llvm.lifetime.start.p0(i64 8, ptr %13) #4
  call void @llvm.lifetime.start.p0(i64 4, ptr %14) #4
  call void @llvm.lifetime.start.p0(i64 4, ptr %15) #4
  %17 = load ptr, ptr %6, align 8, !tbaa !11
  %18 = call i32 @X509_trusted(ptr noundef %17)
  %19 = icmp eq i32 %18, 0
  br i1 %19, label %20, label %21

20:                                               ; preds = %3
  store i32 1, ptr %4, align 4
  store i32 1, ptr %16, align 4
  br label %152

21:                                               ; preds = %3
  %22 = load ptr, ptr %6, align 8, !tbaa !11
  %23 = call ptr @X509_get0_trust_objects(ptr noundef %22)
  store ptr %23, ptr %10, align 8, !tbaa !46
  %24 = load ptr, ptr %6, align 8, !tbaa !11
  %25 = call ptr @X509_get0_reject_objects(ptr noundef %24)
  store ptr %25, ptr %11, align 8, !tbaa !46
  %26 = load ptr, ptr %10, align 8, !tbaa !46
  %27 = icmp ne ptr %26, null
  br i1 %27, label %28, label %63

28:                                               ; preds = %21
  store i8 1, ptr %9, align 1, !tbaa !19
  %29 = load ptr, ptr %5, align 8, !tbaa !15
  %30 = load i32, ptr %7, align 4, !tbaa !17
  %31 = load i32, ptr %7, align 4, !tbaa !17
  %32 = add nsw i32 %31, 2
  %33 = call i32 (ptr, ptr, ...) @BIO_printf(ptr noundef %29, ptr noundef @.str.28, i32 noundef %30, ptr noundef @.str.4, i32 noundef %32, ptr noundef @.str.4)
  store i32 0, ptr %15, align 4, !tbaa !17
  br label %34

34:                                               ; preds = %57, %28
  %35 = load i32, ptr %15, align 4, !tbaa !17
  %36 = load ptr, ptr %10, align 8, !tbaa !46
  %37 = call ptr @ossl_check_const_ASN1_OBJECT_sk_type(ptr noundef %36)
  %38 = call i32 @OPENSSL_sk_num(ptr noundef %37)
  %39 = icmp slt i32 %35, %38
  br i1 %39, label %40, label %60

40:                                               ; preds = %34
  %41 = load i8, ptr %9, align 1, !tbaa !19
  %42 = icmp ne i8 %41, 0
  br i1 %42, label %46, label %43

43:                                               ; preds = %40
  %44 = load ptr, ptr %5, align 8, !tbaa !15
  %45 = call i32 @BIO_puts(ptr noundef %44, ptr noundef @.str.29)
  br label %47

46:                                               ; preds = %40
  store i8 0, ptr %9, align 1, !tbaa !19
  br label %47

47:                                               ; preds = %46, %43
  %48 = getelementptr inbounds [80 x i8], ptr %8, i64 0, i64 0
  %49 = load ptr, ptr %10, align 8, !tbaa !46
  %50 = call ptr @ossl_check_const_ASN1_OBJECT_sk_type(ptr noundef %49)
  %51 = load i32, ptr %15, align 4, !tbaa !17
  %52 = call ptr @OPENSSL_sk_value(ptr noundef %50, i32 noundef %51)
  %53 = call i32 @OBJ_obj2txt(ptr noundef %48, i32 noundef 80, ptr noundef %52, i32 noundef 0)
  %54 = load ptr, ptr %5, align 8, !tbaa !15
  %55 = getelementptr inbounds [80 x i8], ptr %8, i64 0, i64 0
  %56 = call i32 @BIO_puts(ptr noundef %54, ptr noundef %55)
  br label %57

57:                                               ; preds = %47
  %58 = load i32, ptr %15, align 4, !tbaa !17
  %59 = add nsw i32 %58, 1
  store i32 %59, ptr %15, align 4, !tbaa !17
  br label %34, !llvm.loop !48

60:                                               ; preds = %34
  %61 = load ptr, ptr %5, align 8, !tbaa !15
  %62 = call i32 @BIO_puts(ptr noundef %61, ptr noundef @.str.7)
  br label %67

63:                                               ; preds = %21
  %64 = load ptr, ptr %5, align 8, !tbaa !15
  %65 = load i32, ptr %7, align 4, !tbaa !17
  %66 = call i32 (ptr, ptr, ...) @BIO_printf(ptr noundef %64, ptr noundef @.str.30, i32 noundef %65, ptr noundef @.str.4)
  br label %67

67:                                               ; preds = %63, %60
  %68 = load ptr, ptr %11, align 8, !tbaa !46
  %69 = icmp ne ptr %68, null
  br i1 %69, label %70, label %105

70:                                               ; preds = %67
  store i8 1, ptr %9, align 1, !tbaa !19
  %71 = load ptr, ptr %5, align 8, !tbaa !15
  %72 = load i32, ptr %7, align 4, !tbaa !17
  %73 = load i32, ptr %7, align 4, !tbaa !17
  %74 = add nsw i32 %73, 2
  %75 = call i32 (ptr, ptr, ...) @BIO_printf(ptr noundef %71, ptr noundef @.str.31, i32 noundef %72, ptr noundef @.str.4, i32 noundef %74, ptr noundef @.str.4)
  store i32 0, ptr %15, align 4, !tbaa !17
  br label %76

76:                                               ; preds = %99, %70
  %77 = load i32, ptr %15, align 4, !tbaa !17
  %78 = load ptr, ptr %11, align 8, !tbaa !46
  %79 = call ptr @ossl_check_const_ASN1_OBJECT_sk_type(ptr noundef %78)
  %80 = call i32 @OPENSSL_sk_num(ptr noundef %79)
  %81 = icmp slt i32 %77, %80
  br i1 %81, label %82, label %102

82:                                               ; preds = %76
  %83 = load i8, ptr %9, align 1, !tbaa !19
  %84 = icmp ne i8 %83, 0
  br i1 %84, label %88, label %85

85:                                               ; preds = %82
  %86 = load ptr, ptr %5, align 8, !tbaa !15
  %87 = call i32 @BIO_puts(ptr noundef %86, ptr noundef @.str.29)
  br label %89

88:                                               ; preds = %82
  store i8 0, ptr %9, align 1, !tbaa !19
  br label %89

89:                                               ; preds = %88, %85
  %90 = getelementptr inbounds [80 x i8], ptr %8, i64 0, i64 0
  %91 = load ptr, ptr %11, align 8, !tbaa !46
  %92 = call ptr @ossl_check_const_ASN1_OBJECT_sk_type(ptr noundef %91)
  %93 = load i32, ptr %15, align 4, !tbaa !17
  %94 = call ptr @OPENSSL_sk_value(ptr noundef %92, i32 noundef %93)
  %95 = call i32 @OBJ_obj2txt(ptr noundef %90, i32 noundef 80, ptr noundef %94, i32 noundef 0)
  %96 = load ptr, ptr %5, align 8, !tbaa !15
  %97 = getelementptr inbounds [80 x i8], ptr %8, i64 0, i64 0
  %98 = call i32 @BIO_puts(ptr noundef %96, ptr noundef %97)
  br label %99

99:                                               ; preds = %89
  %100 = load i32, ptr %15, align 4, !tbaa !17
  %101 = add nsw i32 %100, 1
  store i32 %101, ptr %15, align 4, !tbaa !17
  br label %76, !llvm.loop !49

102:                                              ; preds = %76
  %103 = load ptr, ptr %5, align 8, !tbaa !15
  %104 = call i32 @BIO_puts(ptr noundef %103, ptr noundef @.str.7)
  br label %109

105:                                              ; preds = %67
  %106 = load ptr, ptr %5, align 8, !tbaa !15
  %107 = load i32, ptr %7, align 4, !tbaa !17
  %108 = call i32 (ptr, ptr, ...) @BIO_printf(ptr noundef %106, ptr noundef @.str.32, i32 noundef %107, ptr noundef @.str.4)
  br label %109

109:                                              ; preds = %105, %102
  %110 = load ptr, ptr %6, align 8, !tbaa !11
  %111 = call ptr @X509_alias_get0(ptr noundef %110, ptr noundef %15)
  store ptr %111, ptr %12, align 8, !tbaa !34
  %112 = load ptr, ptr %12, align 8, !tbaa !34
  %113 = icmp ne ptr %112, null
  br i1 %113, label %114, label %120

114:                                              ; preds = %109
  %115 = load ptr, ptr %5, align 8, !tbaa !15
  %116 = load i32, ptr %7, align 4, !tbaa !17
  %117 = load i32, ptr %15, align 4, !tbaa !17
  %118 = load ptr, ptr %12, align 8, !tbaa !34
  %119 = call i32 (ptr, ptr, ...) @BIO_printf(ptr noundef %115, ptr noundef @.str.33, i32 noundef %116, ptr noundef @.str.4, i32 noundef %117, ptr noundef %118)
  br label %120

120:                                              ; preds = %114, %109
  %121 = load ptr, ptr %6, align 8, !tbaa !11
  %122 = call ptr @X509_keyid_get0(ptr noundef %121, ptr noundef %14)
  store ptr %122, ptr %13, align 8, !tbaa !34
  %123 = load ptr, ptr %13, align 8, !tbaa !34
  %124 = icmp ne ptr %123, null
  br i1 %124, label %125, label %151

125:                                              ; preds = %120
  %126 = load ptr, ptr %5, align 8, !tbaa !15
  %127 = load i32, ptr %7, align 4, !tbaa !17
  %128 = call i32 (ptr, ptr, ...) @BIO_printf(ptr noundef %126, ptr noundef @.str.34, i32 noundef %127, ptr noundef @.str.4)
  store i32 0, ptr %15, align 4, !tbaa !17
  br label %129

129:                                              ; preds = %145, %125
  %130 = load i32, ptr %15, align 4, !tbaa !17
  %131 = load i32, ptr %14, align 4, !tbaa !17
  %132 = icmp slt i32 %130, %131
  br i1 %132, label %133, label %148

133:                                              ; preds = %129
  %134 = load ptr, ptr %5, align 8, !tbaa !15
  %135 = load i32, ptr %15, align 4, !tbaa !17
  %136 = icmp ne i32 %135, 0
  %137 = select i1 %136, ptr @.str.25, ptr @.str.4
  %138 = load ptr, ptr %13, align 8, !tbaa !34
  %139 = load i32, ptr %15, align 4, !tbaa !17
  %140 = sext i32 %139 to i64
  %141 = getelementptr inbounds i8, ptr %138, i64 %140
  %142 = load i8, ptr %141, align 1, !tbaa !19
  %143 = zext i8 %142 to i32
  %144 = call i32 (ptr, ptr, ...) @BIO_printf(ptr noundef %134, ptr noundef @.str.35, ptr noundef %137, i32 noundef %143)
  br label %145

145:                                              ; preds = %133
  %146 = load i32, ptr %15, align 4, !tbaa !17
  %147 = add nsw i32 %146, 1
  store i32 %147, ptr %15, align 4, !tbaa !17
  br label %129, !llvm.loop !50

148:                                              ; preds = %129
  %149 = load ptr, ptr %5, align 8, !tbaa !15
  %150 = call i32 @BIO_write(ptr noundef %149, ptr noundef @.str.7, i32 noundef 1)
  br label %151

151:                                              ; preds = %148, %120
  store i32 1, ptr %4, align 4
  store i32 1, ptr %16, align 4
  br label %152

152:                                              ; preds = %151, %20
  call void @llvm.lifetime.end.p0(i64 4, ptr %15) #4
  call void @llvm.lifetime.end.p0(i64 4, ptr %14) #4
  call void @llvm.lifetime.end.p0(i64 8, ptr %13) #4
  call void @llvm.lifetime.end.p0(i64 8, ptr %12) #4
  call void @llvm.lifetime.end.p0(i64 8, ptr %11) #4
  call void @llvm.lifetime.end.p0(i64 8, ptr %10) #4
  call void @llvm.lifetime.end.p0(i64 1, ptr %9) #4
  call void @llvm.lifetime.end.p0(i64 80, ptr %8) #4
  %153 = load i32, ptr %4, align 4
  ret i32 %153
}